(lp0
(S'elfflags'
p1
ccopy_reg
_reconstructor
p2
(cino.utils
SpaceList
p3
c__builtin__
list
p4
(lp5
S'-Os'
p6
aS'-Wl,--gc-sections'
p7
aS'-mmcu=atmega328p'
p8
atp9
Rp10
tp11
a(S'version.txt'
p12
S'/usr/share/arduino/lib/version.txt'
p13
tp14
a(S'cc'
p15
S'/usr/bin/avr-gcc'
p16
tp17
a(S'cflags'
p18
g2
(g3
g4
(lp19
g8
aS'-ffunction-sections'
p20
aS'-fdata-sections'
p21
aS'-g'
p22
ag6
aS'-w'
p23
aS'-DF_CPU=16000000L'
p24
aS'-DARDUINO=100'
p25
aS'-I/usr/share/arduino/hardware/arduino/cores/arduino'
p26
aS'-I/usr/share/arduino/hardware/arduino/variants/standard'
p27
atp28
Rp29
tp30
a(S'build_dir'
p31
S'.build/uno'
p32
tp33
a(S'arduino_core_dir'
p34
S'/usr/share/arduino/hardware/arduino/cores/arduino'
p35
tp36
a(S'boards.txt'
p37
S'/usr/share/arduino/hardware/arduino/boards.txt'
p38
tp39
a(S'cxxflags'
p40
g2
(g3
g4
(lp41
S'-fno-exceptions'
p42
atp43
Rp44
tp45
a(S'arduino_variants_dir'
p46
S'/usr/share/arduino/hardware/arduino/variants'
p47
tp48
a(S'ar'
p49
S'/usr/bin/avr-ar'
p50
tp51
a(S'names'
p52
(dp53
S'cpp'
p54
S'%s.cpp'
p55
sS'obj'
p56
S'%s.o'
p57
sS'deps'
p58
S'%s.d'
p59
sS'lib'
p60
S'lib%s.a'
p61
stp62
a(S'deps'
p63
g2
(g3
g4
(lp64
tp65
Rp66
tp67
a(S'arduino_libraries_dir'
p68
S'/usr/share/arduino/libraries'
p69
tp70
a(S'arduino_lib_version'
p71
g2
(cino.environment
Version
p72
c__builtin__
tuple
p73
(I1
I0
tp74
tp75
Rp76
tp77
a(S'objcopy'
p78
S'/usr/bin/avr-objcopy'
p79
tp80
a(S'board_models'
p81
cino.environment
BoardModels
p82
((lp83
(lp84
S'uno'
p85
a(dp86
S'bootloader'
p87
(dp88
S'extended_fuses'
p89
S'0x05'
p90
sS'high_fuses'
p91
S'0xde'
p92
sS'low_fuses'
p93
S'0xff'
p94
sS'lock_bits'
p95
S'0x0F'
p96
sS'file'
p97
S'optiboot_atmega328.hex'
p98
sS'path'
p99
S'optiboot'
p100
sS'unlock_bits'
p101
S'0x3F'
p102
ssS'upload'
p103
(dp104
S'protocol'
p105
S'arduino'
p106
sS'maximum_size'
p107
S'32256'
p108
sS'speed'
p109
S'115200'
p110
ssS'build'
p111
(dp112
S'core'
p113
S'arduino'
p114
sS'mcu'
p115
S'atmega328p'
p116
sS'f_cpu'
p117
S'16000000L'
p118
sS'variant'
p119
S'standard'
p120
ssS'name'
p121
S'Arduino Uno'
p122
saa(lp123
S'atmega328'
p124
a(dp125
S'bootloader'
p126
(dp127
S'extended_fuses'
p128
S'0x05'
p129
sS'high_fuses'
p130
S'0xDA'
p131
sS'low_fuses'
p132
S'0xFF'
p133
sS'lock_bits'
p134
S'0x0F'
p135
sS'file'
p136
S'ATmegaBOOT_168_atmega328.hex'
p137
sS'path'
p138
S'atmega'
p139
sS'unlock_bits'
p140
S'0x3F'
p141
ssS'upload'
p142
(dp143
S'protocol'
p144
S'arduino'
p145
sS'maximum_size'
p146
S'30720'
p147
sS'speed'
p148
S'57600'
p149
ssS'build'
p150
(dp151
S'core'
p152
S'arduino'
p153
sS'mcu'
p154
S'atmega328p'
p155
sS'f_cpu'
p156
S'16000000L'
p157
sS'variant'
p158
S'standard'
p159
ssS'name'
p160
S'Arduino Duemilanove w/ ATmega328'
p161
saa(lp162
S'diecimila'
p163
a(dp164
S'bootloader'
p165
(dp166
S'extended_fuses'
p167
S'0x00'
p168
sS'high_fuses'
p169
S'0xdd'
p170
sS'low_fuses'
p171
S'0xff'
p172
sS'lock_bits'
p173
S'0x0F'
p174
sS'file'
p175
S'ATmegaBOOT_168_diecimila.hex'
p176
sS'path'
p177
S'atmega'
p178
sS'unlock_bits'
p179
S'0x3F'
p180
ssS'upload'
p181
(dp182
S'protocol'
p183
S'arduino'
p184
sS'maximum_size'
p185
S'14336'
p186
sS'speed'
p187
S'19200'
p188
ssS'build'
p189
(dp190
S'core'
p191
S'arduino'
p192
sS'mcu'
p193
S'atmega168'
p194
sS'f_cpu'
p195
S'16000000L'
p196
sS'variant'
p197
S'standard'
p198
ssS'name'
p199
S'Arduino Diecimila or Duemilanove w/ ATmega168'
p200
saa(lp201
S'nano328'
p202
a(dp203
S'bootloader'
p204
(dp205
S'extended_fuses'
p206
S'0x05'
p207
sS'high_fuses'
p208
S'0xDA'
p209
sS'low_fuses'
p210
S'0xFF'
p211
sS'lock_bits'
p212
S'0x0F'
p213
sS'file'
p214
S'ATmegaBOOT_168_atmega328.hex'
p215
sS'path'
p216
S'atmega'
p217
sS'unlock_bits'
p218
S'0x3F'
p219
ssS'upload'
p220
(dp221
S'protocol'
p222
S'arduino'
p223
sS'maximum_size'
p224
S'30720'
p225
sS'speed'
p226
S'57600'
p227
ssS'build'
p228
(dp229
S'core'
p230
S'arduino'
p231
sS'mcu'
p232
S'atmega328p'
p233
sS'f_cpu'
p234
S'16000000L'
p235
sS'variant'
p236
S'eightanaloginputs'
p237
ssS'name'
p238
S'Arduino Nano w/ ATmega328'
p239
saa(lp240
S'nano'
p241
a(dp242
S'bootloader'
p243
(dp244
S'extended_fuses'
p245
S'0x00'
p246
sS'high_fuses'
p247
S'0xdd'
p248
sS'low_fuses'
p249
S'0xff'
p250
sS'lock_bits'
p251
S'0x0F'
p252
sS'file'
p253
S'ATmegaBOOT_168_diecimila.hex'
p254
sS'path'
p255
S'atmega'
p256
sS'unlock_bits'
p257
S'0x3F'
p258
ssS'upload'
p259
(dp260
S'protocol'
p261
S'arduino'
p262
sS'maximum_size'
p263
S'14336'
p264
sS'speed'
p265
S'19200'
p266
ssS'build'
p267
(dp268
S'core'
p269
S'arduino'
p270
sS'mcu'
p271
S'atmega168'
p272
sS'f_cpu'
p273
S'16000000L'
p274
sS'variant'
p275
S'eightanaloginputs'
p276
ssS'name'
p277
S'Arduino Nano w/ ATmega168'
p278
saa(lp279
S'mega2560'
p280
a(dp281
S'bootloader'
p282
(dp283
S'extended_fuses'
p284
S'0xFD'
p285
sS'high_fuses'
p286
S'0xD8'
p287
sS'low_fuses'
p288
S'0xFF'
p289
sS'lock_bits'
p290
S'0x0F'
p291
sS'file'
p292
S'stk500boot_v2_mega2560.hex'
p293
sS'path'
p294
S'stk500v2'
p295
sS'unlock_bits'
p296
S'0x3F'
p297
ssS'upload'
p298
(dp299
S'protocol'
p300
S'stk500v2'
p301
sS'maximum_size'
p302
S'258048'
p303
sS'speed'
p304
S'115200'
p305
ssS'build'
p306
(dp307
S'core'
p308
S'arduino'
p309
sS'mcu'
p310
S'atmega2560'
p311
sS'f_cpu'
p312
S'16000000L'
p313
sS'variant'
p314
S'mega'
p315
ssS'name'
p316
S'Arduino Mega 2560 or Mega ADK'
p317
saa(lp318
S'mega'
p319
a(dp320
S'bootloader'
p321
(dp322
S'extended_fuses'
p323
S'0xF5'
p324
sS'high_fuses'
p325
S'0xDA'
p326
sS'low_fuses'
p327
S'0xFF'
p328
sS'lock_bits'
p329
S'0x0F'
p330
sS'file'
p331
S'ATmegaBOOT_168_atmega1280.hex'
p332
sS'path'
p333
S'atmega'
p334
sS'unlock_bits'
p335
S'0x3F'
p336
ssS'upload'
p337
(dp338
S'protocol'
p339
S'arduino'
p340
sS'maximum_size'
p341
S'126976'
p342
sS'speed'
p343
S'57600'
p344
ssS'build'
p345
(dp346
S'core'
p347
S'arduino'
p348
sS'mcu'
p349
S'atmega1280'
p350
sS'f_cpu'
p351
S'16000000L'
p352
sS'variant'
p353
S'mega'
p354
ssS'name'
p355
S'Arduino Mega (ATmega1280)'
p356
saa(lp357
S'mini328'
p358
a(dp359
S'bootloader'
p360
(dp361
S'extended_fuses'
p362
S'0x05'
p363
sS'high_fuses'
p364
S'0xd8'
p365
sS'low_fuses'
p366
S'0xff'
p367
sS'lock_bits'
p368
S'0x0F'
p369
sS'file'
p370
S'optiboot_atmega328-Mini.hex'
p371
sS'path'
p372
S'optiboot'
p373
sS'unlock_bits'
p374
S'0x3F'
p375
ssS'upload'
p376
(dp377
S'protocol'
p378
S'stk500'
p379
sS'maximum_size'
p380
S'28672'
p381
sS'speed'
p382
S'115200'
p383
ssS'build'
p384
(dp385
S'core'
p386
S'arduino'
p387
sS'mcu'
p388
S'atmega328p'
p389
sS'f_cpu'
p390
S'16000000L'
p391
sS'variant'
p392
S'eightanaloginputs'
p393
ssS'name'
p394
S'Arduino Mini w/ ATmega328'
p395
saa(lp396
S'mini'
p397
a(dp398
S'bootloader'
p399
(dp400
S'extended_fuses'
p401
S'0x00'
p402
sS'high_fuses'
p403
S'0xdd'
p404
sS'low_fuses'
p405
S'0xff'
p406
sS'lock_bits'
p407
S'0x0F'
p408
sS'file'
p409
S'ATmegaBOOT_168_ng.hex'
p410
sS'path'
p411
S'atmega'
p412
sS'unlock_bits'
p413
S'0x3F'
p414
ssS'upload'
p415
(dp416
S'protocol'
p417
S'arduino'
p418
sS'maximum_size'
p419
S'14336'
p420
sS'speed'
p421
S'19200'
p422
ssS'build'
p423
(dp424
S'core'
p425
S'arduino'
p426
sS'mcu'
p427
S'atmega168'
p428
sS'f_cpu'
p429
S'16000000L'
p430
sS'variant'
p431
S'eightanaloginputs'
p432
ssS'name'
p433
S'Arduino Mini w/ ATmega168'
p434
saa(lp435
S'ethernet'
p436
a(dp437
S'bootloader'
p438
(dp439
S'extended_fuses'
p440
S'0x05'
p441
sS'high_fuses'
p442
S'0xde'
p443
sS'low_fuses'
p444
S'0xff'
p445
sS'lock_bits'
p446
S'0x0F'
p447
sS'file'
p448
S'optiboot_atmega328.hex'
p449
sS'path'
p450
S'optiboot'
p451
sS'unlock_bits'
p452
S'0x3F'
p453
ssS'upload'
p454
(dp455
S'protocol'
p456
S'arduino'
p457
sS'maximum_size'
p458
S'32256'
p459
sS'speed'
p460
S'115200'
p461
ssS'build'
p462
(dp463
S'variant'
p464
S'standard'
p465
sS'mcu'
p466
S'atmega328p'
p467
sS'f_cpu'
p468
S'16000000L'
p469
sS'core'
p470
S'arduino'
p471
ssS'name'
p472
S'Arduino Ethernet'
p473
saa(lp474
S'fio'
p475
a(dp476
S'bootloader'
p477
(dp478
S'extended_fuses'
p479
S'0x05'
p480
sS'high_fuses'
p481
S'0xDA'
p482
sS'low_fuses'
p483
S'0xFF'
p484
sS'lock_bits'
p485
S'0x0F'
p486
sS'file'
p487
S'ATmegaBOOT_168_atmega328_pro_8MHz.hex'
p488
sS'path'
p489
S'arduino:atmega'
p490
sS'unlock_bits'
p491
S'0x3F'
p492
ssS'upload'
p493
(dp494
S'protocol'
p495
S'arduino'
p496
sS'maximum_size'
p497
S'30720'
p498
sS'speed'
p499
S'57600'
p500
ssS'build'
p501
(dp502
S'core'
p503
S'arduino'
p504
sS'mcu'
p505
S'atmega328p'
p506
sS'f_cpu'
p507
S'8000000L'
p508
sS'variant'
p509
S'eightanaloginputs'
p510
ssS'name'
p511
S'Arduino Fio'
p512
saa(lp513
S'bt328'
p514
a(dp515
S'bootloader'
p516
(dp517
S'extended_fuses'
p518
S'0x05'
p519
sS'high_fuses'
p520
S'0xd8'
p521
sS'low_fuses'
p522
S'0xff'
p523
sS'lock_bits'
p524
S'0x0F'
p525
sS'file'
p526
S'ATmegaBOOT_168_atmega328_bt.hex'
p527
sS'path'
p528
S'bt'
p529
sS'unlock_bits'
p530
S'0x3F'
p531
ssS'upload'
p532
(dp533
S'protocol'
p534
S'arduino'
p535
sS'maximum_size'
p536
S'28672'
p537
sS'speed'
p538
S'19200'
p539
sS'disable_flushing'
p540
S'true'
p541
ssS'build'
p542
(dp543
S'core'
p544
S'arduino'
p545
sS'mcu'
p546
S'atmega328p'
p547
sS'f_cpu'
p548
S'16000000L'
p549
sS'variant'
p550
S'eightanaloginputs'
p551
ssS'name'
p552
S'Arduino BT w/ ATmega328'
p553
saa(lp554
S'bt'
p555
a(dp556
S'bootloader'
p557
(dp558
S'extended_fuses'
p559
S'0x00'
p560
sS'high_fuses'
p561
S'0xdd'
p562
sS'low_fuses'
p563
S'0xff'
p564
sS'lock_bits'
p565
S'0x0F'
p566
sS'file'
p567
S'ATmegaBOOT_168.hex'
p568
sS'path'
p569
S'bt'
p570
sS'unlock_bits'
p571
S'0x3F'
p572
ssS'upload'
p573
(dp574
S'protocol'
p575
S'arduino'
p576
sS'maximum_size'
p577
S'14336'
p578
sS'speed'
p579
S'19200'
p580
sS'disable_flushing'
p581
S'true'
p582
ssS'build'
p583
(dp584
S'core'
p585
S'arduino'
p586
sS'mcu'
p587
S'atmega168'
p588
sS'f_cpu'
p589
S'16000000L'
p590
sS'variant'
p591
S'eightanaloginputs'
p592
ssS'name'
p593
S'Arduino BT w/ ATmega168'
p594
saa(lp595
S'lilypad328'
p596
a(dp597
S'bootloader'
p598
(dp599
S'extended_fuses'
p600
S'0x05'
p601
sS'high_fuses'
p602
S'0xDA'
p603
sS'low_fuses'
p604
S'0xFF'
p605
sS'lock_bits'
p606
S'0x0F'
p607
sS'file'
p608
S'ATmegaBOOT_168_atmega328_pro_8MHz.hex'
p609
sS'path'
p610
S'atmega'
p611
sS'unlock_bits'
p612
S'0x3F'
p613
ssS'upload'
p614
(dp615
S'protocol'
p616
S'arduino'
p617
sS'maximum_size'
p618
S'30720'
p619
sS'speed'
p620
S'57600'
p621
ssS'build'
p622
(dp623
S'core'
p624
S'arduino'
p625
sS'mcu'
p626
S'atmega328p'
p627
sS'f_cpu'
p628
S'8000000L'
p629
sS'variant'
p630
S'standard'
p631
ssS'name'
p632
S'LilyPad Arduino w/ ATmega328'
p633
saa(lp634
S'lilypad'
p635
a(dp636
S'bootloader'
p637
(dp638
S'extended_fuses'
p639
S'0x00'
p640
sS'high_fuses'
p641
S'0xdd'
p642
sS'low_fuses'
p643
S'0xe2'
p644
sS'lock_bits'
p645
S'0x0F'
p646
sS'file'
p647
S'LilyPadBOOT_168.hex'
p648
sS'path'
p649
S'lilypad'
p650
sS'unlock_bits'
p651
S'0x3F'
p652
ssS'upload'
p653
(dp654
S'protocol'
p655
S'arduino'
p656
sS'maximum_size'
p657
S'14336'
p658
sS'speed'
p659
S'19200'
p660
ssS'build'
p661
(dp662
S'core'
p663
S'arduino'
p664
sS'mcu'
p665
S'atmega168'
p666
sS'f_cpu'
p667
S'8000000L'
p668
sS'variant'
p669
S'standard'
p670
ssS'name'
p671
S'LilyPad Arduino w/ ATmega168'
p672
saa(lp673
S'pro5v328'
p674
a(dp675
S'bootloader'
p676
(dp677
S'extended_fuses'
p678
S'0x05'
p679
sS'high_fuses'
p680
S'0xDA'
p681
sS'low_fuses'
p682
S'0xFF'
p683
sS'lock_bits'
p684
S'0x0F'
p685
sS'file'
p686
S'ATmegaBOOT_168_atmega328.hex'
p687
sS'path'
p688
S'atmega'
p689
sS'unlock_bits'
p690
S'0x3F'
p691
ssS'upload'
p692
(dp693
S'protocol'
p694
S'arduino'
p695
sS'maximum_size'
p696
S'30720'
p697
sS'speed'
p698
S'57600'
p699
ssS'build'
p700
(dp701
S'core'
p702
S'arduino'
p703
sS'mcu'
p704
S'atmega328p'
p705
sS'f_cpu'
p706
S'16000000L'
p707
sS'variant'
p708
S'standard'
p709
ssS'name'
p710
S'Arduino Pro or Pro Mini (5V, 16 MHz) w/ ATmega328'
p711
saa(lp712
S'pro5v'
p713
a(dp714
S'bootloader'
p715
(dp716
S'extended_fuses'
p717
S'0x00'
p718
sS'high_fuses'
p719
S'0xdd'
p720
sS'low_fuses'
p721
S'0xff'
p722
sS'lock_bits'
p723
S'0x0F'
p724
sS'file'
p725
S'ATmegaBOOT_168_diecimila.hex'
p726
sS'path'
p727
S'atmega'
p728
sS'unlock_bits'
p729
S'0x3F'
p730
ssS'upload'
p731
(dp732
S'protocol'
p733
S'arduino'
p734
sS'maximum_size'
p735
S'14336'
p736
sS'speed'
p737
S'19200'
p738
ssS'build'
p739
(dp740
S'core'
p741
S'arduino'
p742
sS'mcu'
p743
S'atmega168'
p744
sS'f_cpu'
p745
S'16000000L'
p746
sS'variant'
p747
S'standard'
p748
ssS'name'
p749
S'Arduino Pro or Pro Mini (5V, 16 MHz) w/ ATmega168'
p750
saa(lp751
S'pro328'
p752
a(dp753
S'bootloader'
p754
(dp755
S'extended_fuses'
p756
S'0x05'
p757
sS'high_fuses'
p758
S'0xDA'
p759
sS'low_fuses'
p760
S'0xFF'
p761
sS'lock_bits'
p762
S'0x0F'
p763
sS'file'
p764
S'ATmegaBOOT_168_atmega328_pro_8MHz.hex'
p765
sS'path'
p766
S'atmega'
p767
sS'unlock_bits'
p768
S'0x3F'
p769
ssS'upload'
p770
(dp771
S'protocol'
p772
S'arduino'
p773
sS'maximum_size'
p774
S'30720'
p775
sS'speed'
p776
S'57600'
p777
ssS'build'
p778
(dp779
S'core'
p780
S'arduino'
p781
sS'mcu'
p782
S'atmega328p'
p783
sS'f_cpu'
p784
S'8000000L'
p785
sS'variant'
p786
S'standard'
p787
ssS'name'
p788
S'Arduino Pro or Pro Mini (3.3V, 8 MHz) w/ ATmega328'
p789
saa(lp790
S'pro'
p791
a(dp792
S'bootloader'
p793
(dp794
S'extended_fuses'
p795
S'0x00'
p796
sS'high_fuses'
p797
S'0xdd'
p798
sS'low_fuses'
p799
S'0xc6'
p800
sS'lock_bits'
p801
S'0x0F'
p802
sS'file'
p803
S'ATmegaBOOT_168_pro_8MHz.hex'
p804
sS'path'
p805
S'atmega'
p806
sS'unlock_bits'
p807
S'0x3F'
p808
ssS'upload'
p809
(dp810
S'protocol'
p811
S'arduino'
p812
sS'maximum_size'
p813
S'14336'
p814
sS'speed'
p815
S'19200'
p816
ssS'build'
p817
(dp818
S'core'
p819
S'arduino'
p820
sS'mcu'
p821
S'atmega168'
p822
sS'f_cpu'
p823
S'8000000L'
p824
sS'variant'
p825
S'standard'
p826
ssS'name'
p827
S'Arduino Pro or Pro Mini (3.3V, 8 MHz) w/ ATmega168'
p828
saa(lp829
S'atmega168'
p830
a(dp831
S'bootloader'
p832
(dp833
S'extended_fuses'
p834
S'0x00'
p835
sS'high_fuses'
p836
S'0xdd'
p837
sS'low_fuses'
p838
S'0xff'
p839
sS'lock_bits'
p840
S'0x0F'
p841
sS'file'
p842
S'ATmegaBOOT_168_ng.hex'
p843
sS'path'
p844
S'atmega'
p845
sS'unlock_bits'
p846
S'0x3F'
p847
ssS'upload'
p848
(dp849
S'protocol'
p850
S'arduino'
p851
sS'maximum_size'
p852
S'14336'
p853
sS'speed'
p854
S'19200'
p855
ssS'build'
p856
(dp857
S'core'
p858
S'arduino'
p859
sS'mcu'
p860
S'atmega168'
p861
sS'f_cpu'
p862
S'16000000L'
p863
sS'variant'
p864
S'standard'
p865
ssS'name'
p866
S'Arduino NG or older w/ ATmega168'
p867
saa(lp868
S'atmega8'
p869
a(dp870
S'bootloader'
p871
(dp872
S'high_fuses'
p873
S'0xca'
p874
sS'low_fuses'
p875
S'0xdf'
p876
sS'lock_bits'
p877
S'0x0F'
p878
sS'file'
p879
S'ATmegaBOOT.hex'
p880
sS'path'
p881
S'atmega8'
p882
sS'unlock_bits'
p883
S'0x3F'
p884
ssS'upload'
p885
(dp886
S'protocol'
p887
S'arduino'
p888
sS'maximum_size'
p889
S'7168'
p890
sS'speed'
p891
S'19200'
p892
ssS'build'
p893
(dp894
S'core'
p895
S'arduino'
p896
sS'mcu'
p897
S'atmega8'
p898
sS'f_cpu'
p899
S'16000000L'
p900
sS'variant'
p901
S'standard'
p902
ssS'name'
p903
S'Arduino NG or older w/ ATmega8'
p904
saatp905
Rp906
(dp907
S'default'
p908
S'uno'
p909
sbtp910
a(S'cxx'
p911
S'/usr/bin/avr-g++'
p912
tp913
a.