(lp0
(S'elfflags'
p1
ccopy_reg
_reconstructor
p2
(cino.utils
SpaceList
p3
c__builtin__
list
p4
(lp5
S'-Os'
p6
aS'-Wl,--gc-sections'
p7
aS'-mmcu=atmega328p'
p8
atp9
Rp10
tp11
a(S'version.txt'
p12
S'/usr/share/arduino/lib/version.txt'
p13
tp14
a(S'used_libs'
p15
(lp16
S'/usr/share/arduino/libraries/Stepper'
p17
aS'/usr/share/arduino/hardware/arduino/cores/arduino'
p18
atp19
a(S'cc'
p20
S'/usr/bin/avr-gcc'
p21
tp22
a(S'cflags'
p23
g2
(g3
g4
(lp24
g8
aS'-ffunction-sections'
p25
aS'-fdata-sections'
p26
aS'-g'
p27
ag6
aS'-w'
p28
aS'-DF_CPU=16000000L'
p29
aS'-DARDUINO=100'
p30
aS'-I/usr/share/arduino/hardware/arduino/cores/arduino'
p31
aS'-I/usr/share/arduino/hardware/arduino/variants/standard'
p32
aS'-I/usr/share/arduino/libraries/Stepper'
p33
aS'-I/usr/share/arduino/hardware/arduino/cores/arduino'
p34
atp35
Rp36
tp37
a(S'build_dir'
p38
S'.build/uno'
p39
tp40
a(S'arduino_core_dir'
p41
g18
tp42
a(S'boards.txt'
p43
S'/usr/share/arduino/hardware/arduino/boards.txt'
p44
tp45
a(S'cxxflags'
p46
g2
(g3
g4
(lp47
S'-fno-exceptions'
p48
atp49
Rp50
tp51
a(S'arduino_variants_dir'
p52
S'/usr/share/arduino/hardware/arduino/variants'
p53
tp54
a(S'ar'
p55
S'/usr/bin/avr-ar'
p56
tp57
a(S'names'
p58
(dp59
S'cpp'
p60
S'%s.cpp'
p61
sS'obj'
p62
S'%s.o'
p63
sS'deps'
p64
S'%s.d'
p65
sS'lib'
p66
S'lib%s.a'
p67
stp68
a(S'deps'
p69
g2
(g3
g4
(lp70
S'.build/uno/src/dependencies.d'
p71
aS'.build/uno/Stepper/dependencies.d'
p72
aS'.build/uno/arduino/dependencies.d'
p73
atp74
Rp75
tp76
a(S'arduino_libraries_dir'
p77
S'/usr/share/arduino/libraries'
p78
tp79
a(S'arduino_lib_version'
p80
g2
(cino.environment
Version
p81
c__builtin__
tuple
p82
(I1
I0
tp83
tp84
Rp85
tp86
a(S'objcopy'
p87
S'/usr/bin/avr-objcopy'
p88
tp89
a(S'board_models'
p90
cino.environment
BoardModels
p91
((lp92
(lp93
S'uno'
p94
a(dp95
S'bootloader'
p96
(dp97
S'extended_fuses'
p98
S'0x05'
p99
sS'high_fuses'
p100
S'0xde'
p101
sS'low_fuses'
p102
S'0xff'
p103
sS'lock_bits'
p104
S'0x0F'
p105
sS'file'
p106
S'optiboot_atmega328.hex'
p107
sS'path'
p108
S'optiboot'
p109
sS'unlock_bits'
p110
S'0x3F'
p111
ssS'upload'
p112
(dp113
S'protocol'
p114
S'arduino'
p115
sS'maximum_size'
p116
S'32256'
p117
sS'speed'
p118
S'115200'
p119
ssS'build'
p120
(dp121
S'core'
p122
S'arduino'
p123
sS'mcu'
p124
S'atmega328p'
p125
sS'f_cpu'
p126
S'16000000L'
p127
sS'variant'
p128
S'standard'
p129
ssS'name'
p130
S'Arduino Uno'
p131
saa(lp132
S'atmega328'
p133
a(dp134
S'bootloader'
p135
(dp136
S'extended_fuses'
p137
S'0x05'
p138
sS'high_fuses'
p139
S'0xDA'
p140
sS'low_fuses'
p141
S'0xFF'
p142
sS'lock_bits'
p143
S'0x0F'
p144
sS'file'
p145
S'ATmegaBOOT_168_atmega328.hex'
p146
sS'path'
p147
S'atmega'
p148
sS'unlock_bits'
p149
S'0x3F'
p150
ssS'upload'
p151
(dp152
S'protocol'
p153
S'arduino'
p154
sS'maximum_size'
p155
S'30720'
p156
sS'speed'
p157
S'57600'
p158
ssS'build'
p159
(dp160
S'core'
p161
S'arduino'
p162
sS'mcu'
p163
S'atmega328p'
p164
sS'f_cpu'
p165
S'16000000L'
p166
sS'variant'
p167
S'standard'
p168
ssS'name'
p169
S'Arduino Duemilanove w/ ATmega328'
p170
saa(lp171
S'diecimila'
p172
a(dp173
S'bootloader'
p174
(dp175
S'extended_fuses'
p176
S'0x00'
p177
sS'high_fuses'
p178
S'0xdd'
p179
sS'low_fuses'
p180
S'0xff'
p181
sS'lock_bits'
p182
S'0x0F'
p183
sS'file'
p184
S'ATmegaBOOT_168_diecimila.hex'
p185
sS'path'
p186
S'atmega'
p187
sS'unlock_bits'
p188
S'0x3F'
p189
ssS'upload'
p190
(dp191
S'protocol'
p192
S'arduino'
p193
sS'maximum_size'
p194
S'14336'
p195
sS'speed'
p196
S'19200'
p197
ssS'build'
p198
(dp199
S'core'
p200
S'arduino'
p201
sS'mcu'
p202
S'atmega168'
p203
sS'f_cpu'
p204
S'16000000L'
p205
sS'variant'
p206
S'standard'
p207
ssS'name'
p208
S'Arduino Diecimila or Duemilanove w/ ATmega168'
p209
saa(lp210
S'nano328'
p211
a(dp212
S'bootloader'
p213
(dp214
S'extended_fuses'
p215
S'0x05'
p216
sS'high_fuses'
p217
S'0xDA'
p218
sS'low_fuses'
p219
S'0xFF'
p220
sS'lock_bits'
p221
S'0x0F'
p222
sS'file'
p223
S'ATmegaBOOT_168_atmega328.hex'
p224
sS'path'
p225
S'atmega'
p226
sS'unlock_bits'
p227
S'0x3F'
p228
ssS'upload'
p229
(dp230
S'protocol'
p231
S'arduino'
p232
sS'maximum_size'
p233
S'30720'
p234
sS'speed'
p235
S'57600'
p236
ssS'build'
p237
(dp238
S'core'
p239
S'arduino'
p240
sS'mcu'
p241
S'atmega328p'
p242
sS'f_cpu'
p243
S'16000000L'
p244
sS'variant'
p245
S'eightanaloginputs'
p246
ssS'name'
p247
S'Arduino Nano w/ ATmega328'
p248
saa(lp249
S'nano'
p250
a(dp251
S'bootloader'
p252
(dp253
S'extended_fuses'
p254
S'0x00'
p255
sS'high_fuses'
p256
S'0xdd'
p257
sS'low_fuses'
p258
S'0xff'
p259
sS'lock_bits'
p260
S'0x0F'
p261
sS'file'
p262
S'ATmegaBOOT_168_diecimila.hex'
p263
sS'path'
p264
S'atmega'
p265
sS'unlock_bits'
p266
S'0x3F'
p267
ssS'upload'
p268
(dp269
S'protocol'
p270
S'arduino'
p271
sS'maximum_size'
p272
S'14336'
p273
sS'speed'
p274
S'19200'
p275
ssS'build'
p276
(dp277
S'core'
p278
S'arduino'
p279
sS'mcu'
p280
S'atmega168'
p281
sS'f_cpu'
p282
S'16000000L'
p283
sS'variant'
p284
S'eightanaloginputs'
p285
ssS'name'
p286
S'Arduino Nano w/ ATmega168'
p287
saa(lp288
S'mega2560'
p289
a(dp290
S'bootloader'
p291
(dp292
S'extended_fuses'
p293
S'0xFD'
p294
sS'high_fuses'
p295
S'0xD8'
p296
sS'low_fuses'
p297
S'0xFF'
p298
sS'lock_bits'
p299
S'0x0F'
p300
sS'file'
p301
S'stk500boot_v2_mega2560.hex'
p302
sS'path'
p303
S'stk500v2'
p304
sS'unlock_bits'
p305
S'0x3F'
p306
ssS'upload'
p307
(dp308
S'protocol'
p309
S'stk500v2'
p310
sS'maximum_size'
p311
S'258048'
p312
sS'speed'
p313
S'115200'
p314
ssS'build'
p315
(dp316
S'core'
p317
S'arduino'
p318
sS'mcu'
p319
S'atmega2560'
p320
sS'f_cpu'
p321
S'16000000L'
p322
sS'variant'
p323
S'mega'
p324
ssS'name'
p325
S'Arduino Mega 2560 or Mega ADK'
p326
saa(lp327
S'mega'
p328
a(dp329
S'bootloader'
p330
(dp331
S'extended_fuses'
p332
S'0xF5'
p333
sS'high_fuses'
p334
S'0xDA'
p335
sS'low_fuses'
p336
S'0xFF'
p337
sS'lock_bits'
p338
S'0x0F'
p339
sS'file'
p340
S'ATmegaBOOT_168_atmega1280.hex'
p341
sS'path'
p342
S'atmega'
p343
sS'unlock_bits'
p344
S'0x3F'
p345
ssS'upload'
p346
(dp347
S'protocol'
p348
S'arduino'
p349
sS'maximum_size'
p350
S'126976'
p351
sS'speed'
p352
S'57600'
p353
ssS'build'
p354
(dp355
S'core'
p356
S'arduino'
p357
sS'mcu'
p358
S'atmega1280'
p359
sS'f_cpu'
p360
S'16000000L'
p361
sS'variant'
p362
S'mega'
p363
ssS'name'
p364
S'Arduino Mega (ATmega1280)'
p365
saa(lp366
S'mini328'
p367
a(dp368
S'bootloader'
p369
(dp370
S'extended_fuses'
p371
S'0x05'
p372
sS'high_fuses'
p373
S'0xd8'
p374
sS'low_fuses'
p375
S'0xff'
p376
sS'lock_bits'
p377
S'0x0F'
p378
sS'file'
p379
S'optiboot_atmega328-Mini.hex'
p380
sS'path'
p381
S'optiboot'
p382
sS'unlock_bits'
p383
S'0x3F'
p384
ssS'upload'
p385
(dp386
S'protocol'
p387
S'stk500'
p388
sS'maximum_size'
p389
S'28672'
p390
sS'speed'
p391
S'115200'
p392
ssS'build'
p393
(dp394
S'core'
p395
S'arduino'
p396
sS'mcu'
p397
S'atmega328p'
p398
sS'f_cpu'
p399
S'16000000L'
p400
sS'variant'
p401
S'eightanaloginputs'
p402
ssS'name'
p403
S'Arduino Mini w/ ATmega328'
p404
saa(lp405
S'mini'
p406
a(dp407
S'bootloader'
p408
(dp409
S'extended_fuses'
p410
S'0x00'
p411
sS'high_fuses'
p412
S'0xdd'
p413
sS'low_fuses'
p414
S'0xff'
p415
sS'lock_bits'
p416
S'0x0F'
p417
sS'file'
p418
S'ATmegaBOOT_168_ng.hex'
p419
sS'path'
p420
S'atmega'
p421
sS'unlock_bits'
p422
S'0x3F'
p423
ssS'upload'
p424
(dp425
S'protocol'
p426
S'arduino'
p427
sS'maximum_size'
p428
S'14336'
p429
sS'speed'
p430
S'19200'
p431
ssS'build'
p432
(dp433
S'core'
p434
S'arduino'
p435
sS'mcu'
p436
S'atmega168'
p437
sS'f_cpu'
p438
S'16000000L'
p439
sS'variant'
p440
S'eightanaloginputs'
p441
ssS'name'
p442
S'Arduino Mini w/ ATmega168'
p443
saa(lp444
S'ethernet'
p445
a(dp446
S'bootloader'
p447
(dp448
S'extended_fuses'
p449
S'0x05'
p450
sS'high_fuses'
p451
S'0xde'
p452
sS'low_fuses'
p453
S'0xff'
p454
sS'lock_bits'
p455
S'0x0F'
p456
sS'file'
p457
S'optiboot_atmega328.hex'
p458
sS'path'
p459
S'optiboot'
p460
sS'unlock_bits'
p461
S'0x3F'
p462
ssS'upload'
p463
(dp464
S'protocol'
p465
S'arduino'
p466
sS'maximum_size'
p467
S'32256'
p468
sS'speed'
p469
S'115200'
p470
ssS'build'
p471
(dp472
S'variant'
p473
S'standard'
p474
sS'mcu'
p475
S'atmega328p'
p476
sS'f_cpu'
p477
S'16000000L'
p478
sS'core'
p479
S'arduino'
p480
ssS'name'
p481
S'Arduino Ethernet'
p482
saa(lp483
S'fio'
p484
a(dp485
S'bootloader'
p486
(dp487
S'extended_fuses'
p488
S'0x05'
p489
sS'high_fuses'
p490
S'0xDA'
p491
sS'low_fuses'
p492
S'0xFF'
p493
sS'lock_bits'
p494
S'0x0F'
p495
sS'file'
p496
S'ATmegaBOOT_168_atmega328_pro_8MHz.hex'
p497
sS'path'
p498
S'arduino:atmega'
p499
sS'unlock_bits'
p500
S'0x3F'
p501
ssS'upload'
p502
(dp503
S'protocol'
p504
S'arduino'
p505
sS'maximum_size'
p506
S'30720'
p507
sS'speed'
p508
S'57600'
p509
ssS'build'
p510
(dp511
S'core'
p512
S'arduino'
p513
sS'mcu'
p514
S'atmega328p'
p515
sS'f_cpu'
p516
S'8000000L'
p517
sS'variant'
p518
S'eightanaloginputs'
p519
ssS'name'
p520
S'Arduino Fio'
p521
saa(lp522
S'bt328'
p523
a(dp524
S'bootloader'
p525
(dp526
S'extended_fuses'
p527
S'0x05'
p528
sS'high_fuses'
p529
S'0xd8'
p530
sS'low_fuses'
p531
S'0xff'
p532
sS'lock_bits'
p533
S'0x0F'
p534
sS'file'
p535
S'ATmegaBOOT_168_atmega328_bt.hex'
p536
sS'path'
p537
S'bt'
p538
sS'unlock_bits'
p539
S'0x3F'
p540
ssS'upload'
p541
(dp542
S'protocol'
p543
S'arduino'
p544
sS'maximum_size'
p545
S'28672'
p546
sS'speed'
p547
S'19200'
p548
sS'disable_flushing'
p549
S'true'
p550
ssS'build'
p551
(dp552
S'core'
p553
S'arduino'
p554
sS'mcu'
p555
S'atmega328p'
p556
sS'f_cpu'
p557
S'16000000L'
p558
sS'variant'
p559
S'eightanaloginputs'
p560
ssS'name'
p561
S'Arduino BT w/ ATmega328'
p562
saa(lp563
S'bt'
p564
a(dp565
S'bootloader'
p566
(dp567
S'extended_fuses'
p568
S'0x00'
p569
sS'high_fuses'
p570
S'0xdd'
p571
sS'low_fuses'
p572
S'0xff'
p573
sS'lock_bits'
p574
S'0x0F'
p575
sS'file'
p576
S'ATmegaBOOT_168.hex'
p577
sS'path'
p578
S'bt'
p579
sS'unlock_bits'
p580
S'0x3F'
p581
ssS'upload'
p582
(dp583
S'protocol'
p584
S'arduino'
p585
sS'maximum_size'
p586
S'14336'
p587
sS'speed'
p588
S'19200'
p589
sS'disable_flushing'
p590
S'true'
p591
ssS'build'
p592
(dp593
S'core'
p594
S'arduino'
p595
sS'mcu'
p596
S'atmega168'
p597
sS'f_cpu'
p598
S'16000000L'
p599
sS'variant'
p600
S'eightanaloginputs'
p601
ssS'name'
p602
S'Arduino BT w/ ATmega168'
p603
saa(lp604
S'lilypad328'
p605
a(dp606
S'bootloader'
p607
(dp608
S'extended_fuses'
p609
S'0x05'
p610
sS'high_fuses'
p611
S'0xDA'
p612
sS'low_fuses'
p613
S'0xFF'
p614
sS'lock_bits'
p615
S'0x0F'
p616
sS'file'
p617
S'ATmegaBOOT_168_atmega328_pro_8MHz.hex'
p618
sS'path'
p619
S'atmega'
p620
sS'unlock_bits'
p621
S'0x3F'
p622
ssS'upload'
p623
(dp624
S'protocol'
p625
S'arduino'
p626
sS'maximum_size'
p627
S'30720'
p628
sS'speed'
p629
S'57600'
p630
ssS'build'
p631
(dp632
S'core'
p633
S'arduino'
p634
sS'mcu'
p635
S'atmega328p'
p636
sS'f_cpu'
p637
S'8000000L'
p638
sS'variant'
p639
S'standard'
p640
ssS'name'
p641
S'LilyPad Arduino w/ ATmega328'
p642
saa(lp643
S'lilypad'
p644
a(dp645
S'bootloader'
p646
(dp647
S'extended_fuses'
p648
S'0x00'
p649
sS'high_fuses'
p650
S'0xdd'
p651
sS'low_fuses'
p652
S'0xe2'
p653
sS'lock_bits'
p654
S'0x0F'
p655
sS'file'
p656
S'LilyPadBOOT_168.hex'
p657
sS'path'
p658
S'lilypad'
p659
sS'unlock_bits'
p660
S'0x3F'
p661
ssS'upload'
p662
(dp663
S'protocol'
p664
S'arduino'
p665
sS'maximum_size'
p666
S'14336'
p667
sS'speed'
p668
S'19200'
p669
ssS'build'
p670
(dp671
S'core'
p672
S'arduino'
p673
sS'mcu'
p674
S'atmega168'
p675
sS'f_cpu'
p676
S'8000000L'
p677
sS'variant'
p678
S'standard'
p679
ssS'name'
p680
S'LilyPad Arduino w/ ATmega168'
p681
saa(lp682
S'pro5v328'
p683
a(dp684
S'bootloader'
p685
(dp686
S'extended_fuses'
p687
S'0x05'
p688
sS'high_fuses'
p689
S'0xDA'
p690
sS'low_fuses'
p691
S'0xFF'
p692
sS'lock_bits'
p693
S'0x0F'
p694
sS'file'
p695
S'ATmegaBOOT_168_atmega328.hex'
p696
sS'path'
p697
S'atmega'
p698
sS'unlock_bits'
p699
S'0x3F'
p700
ssS'upload'
p701
(dp702
S'protocol'
p703
S'arduino'
p704
sS'maximum_size'
p705
S'30720'
p706
sS'speed'
p707
S'57600'
p708
ssS'build'
p709
(dp710
S'core'
p711
S'arduino'
p712
sS'mcu'
p713
S'atmega328p'
p714
sS'f_cpu'
p715
S'16000000L'
p716
sS'variant'
p717
S'standard'
p718
ssS'name'
p719
S'Arduino Pro or Pro Mini (5V, 16 MHz) w/ ATmega328'
p720
saa(lp721
S'pro5v'
p722
a(dp723
S'bootloader'
p724
(dp725
S'extended_fuses'
p726
S'0x00'
p727
sS'high_fuses'
p728
S'0xdd'
p729
sS'low_fuses'
p730
S'0xff'
p731
sS'lock_bits'
p732
S'0x0F'
p733
sS'file'
p734
S'ATmegaBOOT_168_diecimila.hex'
p735
sS'path'
p736
S'atmega'
p737
sS'unlock_bits'
p738
S'0x3F'
p739
ssS'upload'
p740
(dp741
S'protocol'
p742
S'arduino'
p743
sS'maximum_size'
p744
S'14336'
p745
sS'speed'
p746
S'19200'
p747
ssS'build'
p748
(dp749
S'core'
p750
S'arduino'
p751
sS'mcu'
p752
S'atmega168'
p753
sS'f_cpu'
p754
S'16000000L'
p755
sS'variant'
p756
S'standard'
p757
ssS'name'
p758
S'Arduino Pro or Pro Mini (5V, 16 MHz) w/ ATmega168'
p759
saa(lp760
S'pro328'
p761
a(dp762
S'bootloader'
p763
(dp764
S'extended_fuses'
p765
S'0x05'
p766
sS'high_fuses'
p767
S'0xDA'
p768
sS'low_fuses'
p769
S'0xFF'
p770
sS'lock_bits'
p771
S'0x0F'
p772
sS'file'
p773
S'ATmegaBOOT_168_atmega328_pro_8MHz.hex'
p774
sS'path'
p775
S'atmega'
p776
sS'unlock_bits'
p777
S'0x3F'
p778
ssS'upload'
p779
(dp780
S'protocol'
p781
S'arduino'
p782
sS'maximum_size'
p783
S'30720'
p784
sS'speed'
p785
S'57600'
p786
ssS'build'
p787
(dp788
S'core'
p789
S'arduino'
p790
sS'mcu'
p791
S'atmega328p'
p792
sS'f_cpu'
p793
S'8000000L'
p794
sS'variant'
p795
S'standard'
p796
ssS'name'
p797
S'Arduino Pro or Pro Mini (3.3V, 8 MHz) w/ ATmega328'
p798
saa(lp799
S'pro'
p800
a(dp801
S'bootloader'
p802
(dp803
S'extended_fuses'
p804
S'0x00'
p805
sS'high_fuses'
p806
S'0xdd'
p807
sS'low_fuses'
p808
S'0xc6'
p809
sS'lock_bits'
p810
S'0x0F'
p811
sS'file'
p812
S'ATmegaBOOT_168_pro_8MHz.hex'
p813
sS'path'
p814
S'atmega'
p815
sS'unlock_bits'
p816
S'0x3F'
p817
ssS'upload'
p818
(dp819
S'protocol'
p820
S'arduino'
p821
sS'maximum_size'
p822
S'14336'
p823
sS'speed'
p824
S'19200'
p825
ssS'build'
p826
(dp827
S'core'
p828
S'arduino'
p829
sS'mcu'
p830
S'atmega168'
p831
sS'f_cpu'
p832
S'8000000L'
p833
sS'variant'
p834
S'standard'
p835
ssS'name'
p836
S'Arduino Pro or Pro Mini (3.3V, 8 MHz) w/ ATmega168'
p837
saa(lp838
S'atmega168'
p839
a(dp840
S'bootloader'
p841
(dp842
S'extended_fuses'
p843
S'0x00'
p844
sS'high_fuses'
p845
S'0xdd'
p846
sS'low_fuses'
p847
S'0xff'
p848
sS'lock_bits'
p849
S'0x0F'
p850
sS'file'
p851
S'ATmegaBOOT_168_ng.hex'
p852
sS'path'
p853
S'atmega'
p854
sS'unlock_bits'
p855
S'0x3F'
p856
ssS'upload'
p857
(dp858
S'protocol'
p859
S'arduino'
p860
sS'maximum_size'
p861
S'14336'
p862
sS'speed'
p863
S'19200'
p864
ssS'build'
p865
(dp866
S'core'
p867
S'arduino'
p868
sS'mcu'
p869
S'atmega168'
p870
sS'f_cpu'
p871
S'16000000L'
p872
sS'variant'
p873
S'standard'
p874
ssS'name'
p875
S'Arduino NG or older w/ ATmega168'
p876
saa(lp877
S'atmega8'
p878
a(dp879
S'bootloader'
p880
(dp881
S'high_fuses'
p882
S'0xca'
p883
sS'low_fuses'
p884
S'0xdf'
p885
sS'lock_bits'
p886
S'0x0F'
p887
sS'file'
p888
S'ATmegaBOOT.hex'
p889
sS'path'
p890
S'atmega8'
p891
sS'unlock_bits'
p892
S'0x3F'
p893
ssS'upload'
p894
(dp895
S'protocol'
p896
S'arduino'
p897
sS'maximum_size'
p898
S'7168'
p899
sS'speed'
p900
S'19200'
p901
ssS'build'
p902
(dp903
S'core'
p904
S'arduino'
p905
sS'mcu'
p906
S'atmega8'
p907
sS'f_cpu'
p908
S'16000000L'
p909
sS'variant'
p910
S'standard'
p911
ssS'name'
p912
S'Arduino NG or older w/ ATmega8'
p913
saatp914
Rp915
(dp916
S'default'
p917
S'uno'
p918
sbtp919
a(S'cxx'
p920
S'/usr/bin/avr-g++'
p921
tp922
a.